target datalayout = "e-m:e-p270:32:32-p271:32:32-p272:64:64-i64:64-i128:128-f80:128-n8:16:32:64-S128"
target triple = "x86_64-pc-linux-gnu"

%class.RSCoder = type <{ [512 x i32], [256 x i32], [1024 x i32], [256 x i32], i32, [256 x i32], i32, [512 x i32], i8, [3 x i8] }>

; Function Attrs: mustprogress nounwind uwtable
define linkonce_odr noundef i32 @_ZN7RSCoder6gfMultEii(ptr noundef nonnull align 4 dereferenceable(11273) %0, i32 noundef %1, i32 noundef %2) #1 comdat align 2 {
  %4 = alloca ptr, align 8
  %5 = alloca i32, align 4
  %6 = alloca i32, align 4
  store ptr %0, ptr %4, align 8
  store i32 %1, ptr %5, align 4
  store i32 %2, ptr %6, align 4
  %7 = load ptr, ptr %4, align 8
  %8 = load i32, ptr %5, align 4
  %9 = icmp eq i32 %8, 0
  br i1 %9, label %13, label %10

10:                                               ; preds = %3
  %11 = load i32, ptr %6, align 4
  %12 = icmp eq i32 %11, 0
  br i1 %12, label %13, label %14

13:                                               ; preds = %10, %3
  br label %30

14:                                               ; preds = %10
  %15 = getelementptr inbounds %class.RSCoder, ptr %7, i32 0, i32 0
  %16 = getelementptr inbounds %class.RSCoder, ptr %7, i32 0, i32 1
  %17 = load i32, ptr %5, align 4
  %18 = sext i32 %17 to i64
  %19 = getelementptr inbounds [256 x i32], ptr %16, i64 0, i64 %18
  %20 = load i32, ptr %19, align 4
  %21 = getelementptr inbounds %class.RSCoder, ptr %7, i32 0, i32 1
  %22 = load i32, ptr %6, align 4
  %23 = sext i32 %22 to i64
  %24 = getelementptr inbounds [256 x i32], ptr %21, i64 0, i64 %23
  %25 = load i32, ptr %24, align 4
  %26 = add nsw i32 %20, %25
  %27 = sext i32 %26 to i64
  %28 = getelementptr inbounds [512 x i32], ptr %15, i64 0, i64 %27
  %29 = load i32, ptr %28, align 4
  br label %30

30:                                               ; preds = %14, %13
  %31 = phi i32 [ 0, %13 ], [ %29, %14 ]
  ret i32 %31
}

; Function Attrs: mustprogress uwtable
define void @_ZN7RSCoder6pnMultEPiS0_S0_(ptr noundef nonnull align 4 dereferenceable(11273) %0, ptr noundef %1, ptr noundef %2, ptr noundef %3) #0 align 2 {
  %5 = alloca ptr, align 8
  %6 = alloca ptr, align 8
  %7 = alloca ptr, align 8
  %8 = alloca ptr, align 8
  %9 = alloca i32, align 4
  %10 = alloca i32, align 4
  %11 = alloca i32, align 4
  store ptr %0, ptr %5, align 8
  store ptr %1, ptr %6, align 8
  store ptr %2, ptr %7, align 8
  store ptr %3, ptr %8, align 8
  %12 = load ptr, ptr %5, align 8
  store i32 0, ptr %9, align 4
  br label %13

13:                                               ; preds = %23, %4
  %14 = load i32, ptr %9, align 4
  %15 = getelementptr inbounds %class.RSCoder, ptr %12, i32 0, i32 6
  %16 = load i32, ptr %15, align 4
  %17 = icmp slt i32 %14, %16
  br i1 %17, label %18, label %26

18:                                               ; preds = %13
  %19 = load ptr, ptr %8, align 8
  %20 = load i32, ptr %9, align 4
  %21 = sext i32 %20 to i64
  %22 = getelementptr inbounds i32, ptr %19, i64 %21
  store i32 0, ptr %22, align 4
  br label %23

23:                                               ; preds = %18
  %24 = load i32, ptr %9, align 4
  %25 = add nsw i32 %24, 1
  store i32 %25, ptr %9, align 4
  br label %13, !llvm.loop !11

26:                                               ; preds = %13
  store i32 0, ptr %10, align 4
  br label %27

27:                                               ; preds = %72, %26
  %28 = load i32, ptr %10, align 4
  %29 = getelementptr inbounds %class.RSCoder, ptr %12, i32 0, i32 6
  %30 = load i32, ptr %29, align 4
  %31 = icmp slt i32 %28, %30
  br i1 %31, label %32, label %75

32:                                               ; preds = %27
  %33 = load ptr, ptr %6, align 8
  %34 = load i32, ptr %10, align 4
  %35 = sext i32 %34 to i64
  %36 = getelementptr inbounds i32, ptr %33, i64 %35
  %37 = load i32, ptr %36, align 4
  %38 = icmp ne i32 %37, 0
  br i1 %38, label %39, label %71

39:                                               ; preds = %32
  store i32 0, ptr %11, align 4
  br label %40

40:                                               ; preds = %67, %39
  %41 = load i32, ptr %11, align 4
  %42 = getelementptr inbounds %class.RSCoder, ptr %12, i32 0, i32 6
  %43 = load i32, ptr %42, align 4
  %44 = load i32, ptr %10, align 4
  %45 = sub nsw i32 %43, %44
  %46 = icmp slt i32 %41, %45
  br i1 %46, label %47, label %70

47:                                               ; preds = %40
  %48 = load ptr, ptr %6, align 8
  %49 = load i32, ptr %10, align 4
  %50 = sext i32 %49 to i64
  %51 = getelementptr inbounds i32, ptr %48, i64 %50
  %52 = load i32, ptr %51, align 4
  %53 = load ptr, ptr %7, align 8
  %54 = load i32, ptr %11, align 4
  %55 = sext i32 %54 to i64
  %56 = getelementptr inbounds i32, ptr %53, i64 %55
  %57 = load i32, ptr %56, align 4
  %58 = call noundef i32 @_ZN7RSCoder6gfMultEii(ptr noundef nonnull align 4 dereferenceable(11273) %12, i32 noundef %52, i32 noundef %57)
  %59 = load ptr, ptr %8, align 8
  %60 = load i32, ptr %10, align 4
  %61 = load i32, ptr %11, align 4
  %62 = add nsw i32 %60, %61
  %63 = sext i32 %62 to i64
  %64 = getelementptr inbounds i32, ptr %59, i64 %63
  %65 = load i32, ptr %64, align 4
  %66 = xor i32 %65, %58
  store i32 %66, ptr %64, align 4
  br label %67

67:                                               ; preds = %47
  %68 = load i32, ptr %11, align 4
  %69 = add nsw i32 %68, 1
  store i32 %69, ptr %11, align 4
  br label %40, !llvm.loop !12

70:                                               ; preds = %40
  br label %71

71:                                               ; preds = %70, %32
  br label %72

72:                                               ; preds = %71
  %73 = load i32, ptr %10, align 4
  %74 = add nsw i32 %73, 1
  store i32 %74, ptr %10, align 4
  br label %27, !llvm.loop !13

75:                                               ; preds = %27
  ret void
}