; Function Attrs: mustprogress nofree norecurse nosync nounwind memory(argmem: readwrite) uwtable
define void @_ZN7RSCoder6pnMultEPiS0_S0_(ptr nocapture noundef nonnull readonly align 4 dereferenceable(11273) %0, ptr nocapture noundef readonly %1, ptr nocapture noundef readonly %2, ptr nocapture noundef %3) local_unnamed_addr #0 align 2 {
  %5 = getelementptr inbounds i8, ptr %0, i64 9220
  %6 = load i32, ptr %5, align 4
  %7 = icmp sgt i32 %6, 0
  br i1 %7, label %.lr.ph, label %._crit_edge

.preheader20:                                     ; preds = %.lr.ph
  %8 = icmp sgt i32 %11, 0
  br i1 %8, label %.lr.ph26, label %._crit_edge

.lr.ph26:                                         ; preds = %.preheader20
  %9 = getelementptr inbounds i8, ptr %0, i64 2048
  br label %14

.lr.ph:                                           ; preds = %4, %.lr.ph
  %indvars.iv = phi i64 [ %indvars.iv.next, %.lr.ph ], [ 0, %4 ]
  %10 = getelementptr inbounds i32, ptr %3, i64 %indvars.iv
  store i32 0, ptr %10, align 4
  %indvars.iv.next = add nuw nsw i64 %indvars.iv, 1
  %11 = load i32, ptr %5, align 4
  %12 = sext i32 %11 to i64
  %13 = icmp slt i64 %indvars.iv.next, %12
  br i1 %13, label %.lr.ph, label %.preheader20, !llvm.loop !7

14:                                               ; preds = %.lr.ph26, %.loopexit
  %15 = phi i32 [ %11, %.lr.ph26 ], [ %44, %.loopexit ]
  %indvars.iv31 = phi i64 [ 0, %.lr.ph26 ], [ %indvars.iv.next32, %.loopexit ]
  %16 = getelementptr inbounds i32, ptr %1, i64 %indvars.iv31
  %17 = load i32, ptr %16, align 4
  %.not = icmp ne i32 %17, 0
  %18 = sext i32 %15 to i64
  %19 = icmp slt i64 %indvars.iv31, %18
  %or.cond = and i1 %.not, %19
  br i1 %or.cond, label %.lr.ph23.preheader, label %.loopexit

.lr.ph23.preheader:                               ; preds = %14
  %invariant.gep = getelementptr i32, ptr %3, i64 %indvars.iv31
  %20 = trunc nuw nsw i64 %indvars.iv31 to i32
  br label %.lr.ph23

.lr.ph23:                                         ; preds = %.lr.ph23.preheader, %_ZN7RSCoder6gfMultEii.exit
  %indvars.iv28 = phi i64 [ 0, %.lr.ph23.preheader ], [ %indvars.iv.next29, %_ZN7RSCoder6gfMultEii.exit ]
  %21 = load i32, ptr %16, align 4
  %22 = getelementptr inbounds i32, ptr %2, i64 %indvars.iv28
  %23 = load i32, ptr %22, align 4
  %24 = icmp eq i32 %21, 0
  %25 = icmp eq i32 %23, 0
  %or.cond.i = or i1 %24, %25
  br i1 %or.cond.i, label %_ZN7RSCoder6gfMultEii.exit, label %26

26:                                               ; preds = %.lr.ph23
  %27 = sext i32 %21 to i64
  %28 = getelementptr inbounds [256 x i32], ptr %9, i64 0, i64 %27
  %29 = load i32, ptr %28, align 4
  %30 = sext i32 %23 to i64
  %31 = getelementptr inbounds [256 x i32], ptr %9, i64 0, i64 %30
  %32 = load i32, ptr %31, align 4
  %33 = add nsw i32 %32, %29
  %34 = sext i32 %33 to i64
  %35 = getelementptr inbounds [512 x i32], ptr %0, i64 0, i64 %34
  %36 = load i32, ptr %35, align 4
  br label %_ZN7RSCoder6gfMultEii.exit

_ZN7RSCoder6gfMultEii.exit:                       ; preds = %.lr.ph23, %26
  %37 = phi i32 [ %36, %26 ], [ 0, %.lr.ph23 ]
  %gep = getelementptr i32, ptr %invariant.gep, i64 %indvars.iv28
  %38 = load i32, ptr %gep, align 4
  %39 = xor i32 %38, %37
  store i32 %39, ptr %gep, align 4
  %indvars.iv.next29 = add nuw nsw i64 %indvars.iv28, 1
  %40 = load i32, ptr %5, align 4
  %41 = sub nsw i32 %40, %20
  %42 = sext i32 %41 to i64
  %43 = icmp slt i64 %indvars.iv.next29, %42
  br i1 %43, label %.lr.ph23, label %.loopexit, !llvm.loop !8

.loopexit:                                        ; preds = %_ZN7RSCoder6gfMultEii.exit, %14
  %44 = phi i32 [ %15, %14 ], [ %40, %_ZN7RSCoder6gfMultEii.exit ]
  %indvars.iv.next32 = add nuw nsw i64 %indvars.iv31, 1
  %45 = sext i32 %44 to i64
  %46 = icmp slt i64 %indvars.iv.next32, %45
  br i1 %46, label %14, label %._crit_edge, !llvm.loop !9

._crit_edge:                                      ; preds = %.loopexit, %4, %.preheader20
  ret void
}